target datalayout = "e-m:e-p270:32:32-p271:32:32-p272:64:64-i64:64-i128:128-f80:128-n8:16:32:64-S128"
target triple = "x86_64-pc-linux-gnu"

; Function Attrs: nounwind uwtable
define ptr @ff_all_formats(i32 noundef %0) #0 {
  %2 = alloca ptr, align 8
  %3 = alloca i32, align 4
  %4 = alloca ptr, align 8
  %5 = alloca i32, align 4
  %6 = alloca i32, align 4
  store i32 %0, ptr %3, align 4, !tbaa !21
  call void @llvm.lifetime.start.p0(i64 8, ptr %4) #7
  store ptr null, ptr %4, align 8, !tbaa !27
  %7 = load i32, ptr %3, align 4, !tbaa !21
  %8 = icmp eq i32 %7, 0
  br i1 %8, label %9, label %11

9:                                                ; preds = %1
  %10 = call ptr @ff_formats_pixdesc_filter(i32 noundef 0, i32 noundef 0)
  store ptr %10, ptr %2, align 8
  store i32 1, ptr %5, align 4
  br label %35

11:                                               ; preds = %1
  %12 = load i32, ptr %3, align 4, !tbaa !21
  %13 = icmp eq i32 %12, 1
  br i1 %13, label %14, label %32

14:                                               ; preds = %11
  call void @llvm.lifetime.start.p0(i64 4, ptr %6) #7
  store i32 0, ptr %6, align 4, !tbaa !21
  br label %15

15:                                               ; preds = %25, %14
  %16 = load i32, ptr %6, align 4, !tbaa !21
  %17 = call ptr @av_get_sample_fmt_name(i32 noundef %16)
  %18 = icmp ne ptr %17, null
  br i1 %18, label %19, label %28

19:                                               ; preds = %15
  %20 = load i32, ptr %6, align 4, !tbaa !21
  %21 = sext i32 %20 to i64
  %22 = call i32 @ff_add_format(ptr noundef %4, i64 noundef %21)
  %23 = icmp slt i32 %22, 0
  br i1 %23, label %24, label %25

24:                                               ; preds = %19
  store ptr null, ptr %2, align 8
  store i32 1, ptr %5, align 4
  br label %29

25:                                               ; preds = %19
  %26 = load i32, ptr %6, align 4, !tbaa !21
  %27 = add nsw i32 %26, 1
  store i32 %27, ptr %6, align 4, !tbaa !21
  br label %15, !llvm.loop !58

28:                                               ; preds = %15
  store i32 0, ptr %5, align 4
  br label %29

29:                                               ; preds = %28, %24
  call void @llvm.lifetime.end.p0(i64 4, ptr %6) #7
  %30 = load i32, ptr %5, align 4
  switch i32 %30, label %35 [
    i32 0, label %31
  ]

31:                                               ; preds = %29
  br label %32

32:                                               ; preds = %31, %11
  br label %33

33:                                               ; preds = %32
  %34 = load ptr, ptr %4, align 8, !tbaa !27
  store ptr %34, ptr %2, align 8
  store i32 1, ptr %5, align 4
  br label %35

35:                                               ; preds = %33, %29, %9
  call void @llvm.lifetime.end.p0(i64 8, ptr %4) #7
  %36 = load ptr, ptr %2, align 8
  ret ptr %36
}