; Function Attrs: nounwind uwtable
define ptr @ff_all_formats(i32 noundef %0) local_unnamed_addr #3 {
  %2 = alloca ptr, align 8
  call void @llvm.lifetime.start.p0(i64 8, ptr nonnull %2) #10
  store ptr null, ptr %2, align 8, !tbaa !23
  switch i32 %0, label %.loopexit [
    i32 0, label %4
    i32 1, label %.preheader
  ]

.preheader:                                       ; preds = %1
  %3 = tail call ptr @av_get_sample_fmt_name(i32 noundef 0) #10
  %.not9 = icmp eq ptr %3, null
  br i1 %.not9, label %.loopexit, label %.lr.ph

4:                                                ; preds = %1
  %5 = tail call ptr @ff_formats_pixdesc_filter(i32 noundef 0, i32 noundef 0)
  br label %.loopexit

6:                                                ; preds = %.lr.ph
  %indvars.iv.next = add nuw nsw i64 %indvars.iv, 1
  %7 = trunc nuw i64 %indvars.iv.next to i32
  %8 = call ptr @av_get_sample_fmt_name(i32 noundef %7) #10
  %.not = icmp eq ptr %8, null
  br i1 %.not, label %.critedge.loopexit, label %.lr.ph, !llvm.loop !52

.lr.ph:                                           ; preds = %.preheader, %6
  %indvars.iv = phi i64 [ %indvars.iv.next, %6 ], [ 0, %.preheader ]
  %9 = call i32 @ff_add_format(ptr noundef nonnull %2, i64 noundef %indvars.iv)
  %10 = icmp slt i32 %9, 0
  br i1 %10, label %.loopexit, label %6

.critedge.loopexit:                               ; preds = %6
  %.pre = load ptr, ptr %2, align 8, !tbaa !23
  br label %.loopexit

.loopexit:                                        ; preds = %.lr.ph, %1, %.preheader, %.critedge.loopexit, %4
  %.07 = phi ptr [ %5, %4 ], [ %.pre, %.critedge.loopexit ], [ null, %.preheader ], [ null, %1 ], [ null, %.lr.ph ]
  call void @llvm.lifetime.end.p0(i64 8, ptr nonnull %2) #10
  ret ptr %.07
}